target datalayout = "e-m:e-p270:32:32-p271:32:32-p272:64:64-i64:64-i128:128-f80:128-n8:16:32:64-S128"
target triple = "x86_64-pc-linux-gnu"

%"class.Json::Value" = type { %"union.Json::Value::ValueHolder", i16, ptr, i64 }
%"union.Json::Value::ValueHolder" = type { i64 }
%"class.std::__cxx11::basic_string" = type { %"struct.std::__cxx11::basic_string<char>::_Alloc_hider", i64, %union.anon }
%"struct.std::__cxx11::basic_string<char>::_Alloc_hider" = type { ptr }
%union.anon = type { i64, [8 x i8] }
%"class.std::allocator.6" = type { i8 }
%"class.std::__cxx11::basic_ostringstream" = type { %"class.std::basic_ostream.base", %"class.std::__cxx11::basic_stringbuf", %"class.std::basic_ios" }
%"class.std::basic_ostream.base" = type { ptr }
%"class.std::__cxx11::basic_stringbuf" = type { %"class.std::basic_streambuf", i32, %"class.std::__cxx11::basic_string" }
%"class.std::basic_streambuf" = type { ptr, ptr, ptr, ptr, ptr, ptr, ptr, %"class.std::locale" }
%"class.std::locale" = type { ptr }
%"class.std::basic_ios" = type { %"class.std::ios_base", ptr, i8, i8, ptr, ptr, ptr, ptr }
%"class.std::ios_base" = type { ptr, i64, i64, i32, i32, i32, ptr, %"struct.std::ios_base::_Words", [8 x %"struct.std::ios_base::_Words"], i32, ptr, %"class.std::locale" }
%"struct.std::ios_base::_Words" = type { ptr, i64 }

@.str = private unnamed_addr constant [1 x i8] zeroinitializer, align 1
@.str.45 = private unnamed_addr constant [5 x i8] c"true\00", align 1
@.str.46 = private unnamed_addr constant [6 x i8] c"false\00", align 1
@.str.47 = private unnamed_addr constant [34 x i8] c"Type is not convertible to string\00", align 1

; Function Attrs: mustprogress nounwind uwtable
define internal void @_ZN4JsonL12uintToStringEyRPc(i64 noundef %0, ptr noundef nonnull align 8 dereferenceable(8) %1) #0 {
  %3 = alloca i64, align 8
  %4 = alloca ptr, align 8
  store i64 %0, ptr %3, align 8
  store ptr %1, ptr %4, align 8
  %5 = load ptr, ptr %4, align 8
  %6 = load ptr, ptr %5, align 8
  %7 = getelementptr inbounds i8, ptr %6, i32 -1
  store ptr %7, ptr %5, align 8
  store i8 0, ptr %7, align 1
  br label %8

8:                                                ; preds = %18, %2
  %9 = load i64, ptr %3, align 8
  %10 = urem i64 %9, 10
  %11 = add i64 %10, 48
  %12 = trunc i64 %11 to i8
  %13 = load ptr, ptr %4, align 8
  %14 = load ptr, ptr %13, align 8
  %15 = getelementptr inbounds i8, ptr %14, i32 -1
  store ptr %15, ptr %13, align 8
  store i8 %12, ptr %15, align 1
  %16 = load i64, ptr %3, align 8
  %17 = udiv i64 %16, 10
  store i64 %17, ptr %3, align 8
  br label %18

18:                                               ; preds = %8
  %19 = load i64, ptr %3, align 8
  %20 = icmp ne i64 %19, 0
  br i1 %20, label %8, label %21, !llvm.loop !64

21:                                               ; preds = %18
  ret void
}

; Function Attrs: mustprogress uwtable
define dso_local void @_ZN4Json13valueToStringB5cxx11Ed(ptr dead_on_unwind noalias writable sret(%"class.std::__cxx11::basic_string") align 8 %0, double noundef %1) #1 {
  %3 = alloca ptr, align 8
  %4 = alloca double, align 8
  store ptr %0, ptr %3, align 8
  store double %1, ptr %4, align 8
  %5 = load double, ptr %4, align 8
  call void @_ZN4Json13valueToStringB5cxx11Edbj(ptr dead_on_unwind writable sret(%"class.std::__cxx11::basic_string") align 8 %0, double noundef %5, i1 noundef zeroext false, i32 noundef 17)
  ret void
}

; Function Attrs: mustprogress uwtable
define dso_local void @_ZN4Json13valueToStringB5cxx11Ey(ptr dead_on_unwind noalias writable sret(%"class.std::__cxx11::basic_string") align 8 %0, i64 noundef %1) #1 personality ptr @__gxx_personality_v0 {
  %3 = alloca ptr, align 8
  %4 = alloca i64, align 8
  %5 = alloca [25 x i8], align 16
  %6 = alloca ptr, align 8
  %7 = alloca %"class.std::allocator.6", align 1
  %8 = alloca ptr, align 8
  %9 = alloca i32, align 4
  store ptr %0, ptr %3, align 8
  store i64 %1, ptr %4, align 8
  %10 = getelementptr inbounds [25 x i8], ptr %5, i64 0, i64 0
  %11 = getelementptr inbounds i8, ptr %10, i64 25
  store ptr %11, ptr %6, align 8
  %12 = load i64, ptr %4, align 8
  call void @_ZN4JsonL12uintToStringEyRPc(i64 noundef %12, ptr noundef nonnull align 8 dereferenceable(8) %6)
  %13 = load ptr, ptr %6, align 8
  call void @_ZNSaIcEC1Ev(ptr noundef nonnull align 1 dereferenceable(1) %7) #10
  invoke void @_ZNSt7__cxx1112basic_stringIcSt11char_traitsIcESaIcEEC1EPKcRKS3_(ptr noundef nonnull align 8 dereferenceable(32) %0, ptr noundef %13, ptr noundef nonnull align 1 dereferenceable(1) %7)
          to label %14 unwind label %15

14:                                               ; preds = %2
  call void @_ZNSaIcED1Ev(ptr noundef nonnull align 1 dereferenceable(1) %7) #10
  ret void

15:                                               ; preds = %2
  %16 = landingpad { ptr, i32 }
          cleanup
  %17 = extractvalue { ptr, i32 } %16, 0
  store ptr %17, ptr %8, align 8
  %18 = extractvalue { ptr, i32 } %16, 1
  store i32 %18, ptr %9, align 4
  call void @_ZNSaIcED1Ev(ptr noundef nonnull align 1 dereferenceable(1) %7) #10
  br label %19

19:                                               ; preds = %15
  %20 = load ptr, ptr %8, align 8
  %21 = load i32, ptr %9, align 4
  %22 = insertvalue { ptr, i32 } poison, ptr %20, 0
  %23 = insertvalue { ptr, i32 } %22, i32 %21, 1
  resume { ptr, i32 } %23
}

; Function Attrs: mustprogress nounwind uwtable
define internal void @_ZN4JsonL20decodePrefixedStringEbPKcPjPS1_(i1 noundef zeroext %0, ptr noundef %1, ptr noundef %2, ptr noundef %3) #0 {
  %5 = alloca i8, align 1
  %6 = alloca ptr, align 8
  %7 = alloca ptr, align 8
  %8 = alloca ptr, align 8
  %9 = zext i1 %0 to i8
  store i8 %9, ptr %5, align 1
  store ptr %1, ptr %6, align 8
  store ptr %2, ptr %7, align 8
  store ptr %3, ptr %8, align 8
  %10 = load i8, ptr %5, align 1
  %11 = trunc i8 %10 to i1
  br i1 %11, label %19, label %12

12:                                               ; preds = %4
  %13 = load ptr, ptr %6, align 8
  %14 = call i64 @strlen(ptr noundef %13) #21
  %15 = trunc i64 %14 to i32
  %16 = load ptr, ptr %7, align 8
  store i32 %15, ptr %16, align 4
  %17 = load ptr, ptr %6, align 8
  %18 = load ptr, ptr %8, align 8
  store ptr %17, ptr %18, align 8
  br label %26

19:                                               ; preds = %4
  %20 = load ptr, ptr %6, align 8
  %21 = load i32, ptr %20, align 4
  %22 = load ptr, ptr %7, align 8
  store i32 %21, ptr %22, align 4
  %23 = load ptr, ptr %6, align 8
  %24 = getelementptr inbounds i8, ptr %23, i64 4
  %25 = load ptr, ptr %8, align 8
  store ptr %24, ptr %25, align 8
  br label %26

26:                                               ; preds = %19, %12
  ret void
}

; Function Attrs: mustprogress uwtable
define dso_local void @_ZNK4Json5Value8asStringB5cxx11Ev(ptr dead_on_unwind noalias writable sret(%"class.std::__cxx11::basic_string") align 8 %0, ptr noundef nonnull align 8 dereferenceable(32) %1) #1 align 2 personality ptr @__gxx_personality_v0 {
  %3 = alloca ptr, align 8
  %4 = alloca ptr, align 8
  %5 = alloca %"class.std::allocator.6", align 1
  %6 = alloca ptr, align 8
  %7 = alloca i32, align 4
  %8 = alloca %"class.std::allocator.6", align 1
  %9 = alloca i32, align 4
  %10 = alloca ptr, align 8
  %11 = alloca %"class.std::allocator.6", align 1
  %12 = alloca %"class.std::allocator.6", align 1
  %13 = alloca %"class.std::__cxx11::basic_ostringstream", align 8
  %14 = alloca %"class.std::__cxx11::basic_string", align 8
  store ptr %0, ptr %3, align 8
  store ptr %1, ptr %4, align 8
  %15 = load ptr, ptr %4, align 8
  %16 = getelementptr inbounds %"class.Json::Value", ptr %15, i32 0, i32 1
  %17 = load i16, ptr %16, align 8
  %18 = and i16 %17, 255
  %19 = zext i16 %18 to i32
  switch i32 %19, label %72 [
    i32 0, label %20
    i32 4, label %26
    i32 5, label %53
    i32 1, label %63
    i32 2, label %66
    i32 3, label %69
  ]

20:                                               ; preds = %2
  call void @_ZNSaIcEC1Ev(ptr noundef nonnull align 1 dereferenceable(1) %5) #10
  invoke void @_ZNSt7__cxx1112basic_stringIcSt11char_traitsIcESaIcEEC1EPKcRKS3_(ptr noundef nonnull align 8 dereferenceable(32) %0, ptr noundef @.str, ptr noundef nonnull align 1 dereferenceable(1) %5)
          to label %21 unwind label %22

21:                                               ; preds = %20
  call void @_ZNSaIcED1Ev(ptr noundef nonnull align 1 dereferenceable(1) %5) #10
  br label %86

22:                                               ; preds = %20
  %23 = landingpad { ptr, i32 }
          cleanup
  %24 = extractvalue { ptr, i32 } %23, 0
  store ptr %24, ptr %6, align 8
  %25 = extractvalue { ptr, i32 } %23, 1
  store i32 %25, ptr %7, align 4
  call void @_ZNSaIcED1Ev(ptr noundef nonnull align 1 dereferenceable(1) %5) #10
  br label %87

26:                                               ; preds = %2
  %27 = getelementptr inbounds %"class.Json::Value", ptr %15, i32 0, i32 0
  %28 = load ptr, ptr %27, align 8
  %29 = icmp eq ptr %28, null
  br i1 %29, label %30, label %36

30:                                               ; preds = %26
  call void @_ZNSaIcEC1Ev(ptr noundef nonnull align 1 dereferenceable(1) %8) #10
  invoke void @_ZNSt7__cxx1112basic_stringIcSt11char_traitsIcESaIcEEC1EPKcRKS3_(ptr noundef nonnull align 8 dereferenceable(32) %0, ptr noundef @.str, ptr noundef nonnull align 1 dereferenceable(1) %8)
          to label %31 unwind label %32

31:                                               ; preds = %30
  call void @_ZNSaIcED1Ev(ptr noundef nonnull align 1 dereferenceable(1) %8) #10
  br label %86

32:                                               ; preds = %30
  %33 = landingpad { ptr, i32 }
          cleanup
  %34 = extractvalue { ptr, i32 } %33, 0
  store ptr %34, ptr %6, align 8
  %35 = extractvalue { ptr, i32 } %33, 1
  store i32 %35, ptr %7, align 4
  call void @_ZNSaIcED1Ev(ptr noundef nonnull align 1 dereferenceable(1) %8) #10
  br label %87

36:                                               ; preds = %26
  %37 = getelementptr inbounds %"class.Json::Value", ptr %15, i32 0, i32 1
  %38 = load i16, ptr %37, align 8
  %39 = lshr i16 %38, 8
  %40 = and i16 %39, 1
  %41 = zext i16 %40 to i32
  %42 = icmp ne i32 %41, 0
  %43 = getelementptr inbounds %"class.Json::Value", ptr %15, i32 0, i32 0
  %44 = load ptr, ptr %43, align 8
  call void @_ZN4JsonL20decodePrefixedStringEbPKcPjPS1_(i1 noundef zeroext %42, ptr noundef %44, ptr noundef %9, ptr noundef %10)
  %45 = load ptr, ptr %10, align 8
  %46 = load i32, ptr %9, align 4
  %47 = zext i32 %46 to i64
  call void @_ZNSaIcEC1Ev(ptr noundef nonnull align 1 dereferenceable(1) %11) #10
  invoke void @_ZNSt7__cxx1112basic_stringIcSt11char_traitsIcESaIcEEC1EPKcmRKS3_(ptr noundef nonnull align 8 dereferenceable(32) %0, ptr noundef %45, i64 noundef %47, ptr noundef nonnull align 1 dereferenceable(1) %11)
          to label %48 unwind label %49

48:                                               ; preds = %36
  call void @_ZNSaIcED1Ev(ptr noundef nonnull align 1 dereferenceable(1) %11) #10
  br label %86

49:                                               ; preds = %36
  %50 = landingpad { ptr, i32 }
          cleanup
  %51 = extractvalue { ptr, i32 } %50, 0
  store ptr %51, ptr %6, align 8
  %52 = extractvalue { ptr, i32 } %50, 1
  store i32 %52, ptr %7, align 4
  call void @_ZNSaIcED1Ev(ptr noundef nonnull align 1 dereferenceable(1) %11) #10
  br label %87

53:                                               ; preds = %2
  %54 = getelementptr inbounds %"class.Json::Value", ptr %15, i32 0, i32 0
  %55 = load i8, ptr %54, align 8
  %56 = trunc i8 %55 to i1
  %57 = select i1 %56, ptr @.str.45, ptr @.str.46
  call void @_ZNSaIcEC1Ev(ptr noundef nonnull align 1 dereferenceable(1) %12) #10
  invoke void @_ZNSt7__cxx1112basic_stringIcSt11char_traitsIcESaIcEEC1EPKcRKS3_(ptr noundef nonnull align 8 dereferenceable(32) %0, ptr noundef %57, ptr noundef nonnull align 1 dereferenceable(1) %12)
          to label %58 unwind label %59

58:                                               ; preds = %53
  call void @_ZNSaIcED1Ev(ptr noundef nonnull align 1 dereferenceable(1) %12) #10
  br label %86

59:                                               ; preds = %53
  %60 = landingpad { ptr, i32 }
          cleanup
  %61 = extractvalue { ptr, i32 } %60, 0
  store ptr %61, ptr %6, align 8
  %62 = extractvalue { ptr, i32 } %60, 1
  store i32 %62, ptr %7, align 4
  call void @_ZNSaIcED1Ev(ptr noundef nonnull align 1 dereferenceable(1) %12) #10
  br label %87

63:                                               ; preds = %2
  %64 = getelementptr inbounds %"class.Json::Value", ptr %15, i32 0, i32 0
  %65 = load i64, ptr %64, align 8
  call void @_ZN4Json13valueToStringB5cxx11Ex(ptr dead_on_unwind writable sret(%"class.std::__cxx11::basic_string") align 8 %0, i64 noundef %65)
  br label %86

66:                                               ; preds = %2
  %67 = getelementptr inbounds %"class.Json::Value", ptr %15, i32 0, i32 0
  %68 = load i64, ptr %67, align 8
  call void @_ZN4Json13valueToStringB5cxx11Ey(ptr dead_on_unwind writable sret(%"class.std::__cxx11::basic_string") align 8 %0, i64 noundef %68)
  br label %86

69:                                               ; preds = %2
  %70 = getelementptr inbounds %"class.Json::Value", ptr %15, i32 0, i32 0
  %71 = load double, ptr %70, align 8
  call void @_ZN4Json13valueToStringB5cxx11Ed(ptr dead_on_unwind writable sret(%"class.std::__cxx11::basic_string") align 8 %0, double noundef %71)
  br label %86

72:                                               ; preds = %2
  call void @_ZNSt7__cxx1119basic_ostringstreamIcSt11char_traitsIcESaIcEEC1Ev(ptr noundef nonnull align 8 dereferenceable(112) %13)
  %73 = invoke noundef nonnull align 8 dereferenceable(8) ptr @_ZStlsISt11char_traitsIcEERSt13basic_ostreamIcT_ES5_PKc(ptr noundef nonnull align 8 dereferenceable(8) %13, ptr noundef @.str.47)
          to label %74 unwind label %77

74:                                               ; preds = %72
  invoke void @_ZNKSt7__cxx1119basic_ostringstreamIcSt11char_traitsIcESaIcEE3strEv(ptr dead_on_unwind writable sret(%"class.std::__cxx11::basic_string") align 8 %14, ptr noundef nonnull align 8 dereferenceable(112) %13)
          to label %75 unwind label %77

75:                                               ; preds = %74
  invoke void @_ZN4Json15throwLogicErrorERKNSt7__cxx1112basic_stringIcSt11char_traitsIcESaIcEEE(ptr noundef nonnull align 8 dereferenceable(32) %14) #18
          to label %76 unwind label %81

76:                                               ; preds = %75
  unreachable

77:                                               ; preds = %74, %72
  %78 = landingpad { ptr, i32 }
          cleanup
  %79 = extractvalue { ptr, i32 } %78, 0
  store ptr %79, ptr %6, align 8
  %80 = extractvalue { ptr, i32 } %78, 1
  store i32 %80, ptr %7, align 4
  br label %85

81:                                               ; preds = %75
  %82 = landingpad { ptr, i32 }
          cleanup
  %83 = extractvalue { ptr, i32 } %82, 0
  store ptr %83, ptr %6, align 8
  %84 = extractvalue { ptr, i32 } %82, 1
  store i32 %84, ptr %7, align 4
  call void @_ZNSt7__cxx1112basic_stringIcSt11char_traitsIcESaIcEED1Ev(ptr noundef nonnull align 8 dereferenceable(32) %14) #10
  br label %85

85:                                               ; preds = %81, %77
  call void @_ZNSt7__cxx1119basic_ostringstreamIcSt11char_traitsIcESaIcEED1Ev(ptr noundef nonnull align 8 dereferenceable(112) %13) #10
  br label %87

86:                                               ; preds = %69, %66, %63, %58, %48, %31, %21
  ret void

87:                                               ; preds = %85, %59, %49, %32, %22
  %88 = load ptr, ptr %6, align 8
  %89 = load i32, ptr %7, align 4
  %90 = insertvalue { ptr, i32 } poison, ptr %88, 0
  %91 = insertvalue { ptr, i32 } %90, i32 %89, 1
  resume { ptr, i32 } %91
}