; Function Attrs: mustprogress uwtable
define dso_local void @_ZNK4Json5Value8asStringB5cxx11Ev(ptr dead_on_unwind noalias writable sret(%"class.std::__cxx11::basic_string") align 8 %0, ptr nocapture noundef nonnull readonly align 8 dereferenceable(32) %1) local_unnamed_addr #2 align 2 personality ptr @__gxx_personality_v0 {
  %3 = alloca [25 x i8], align 16
  %4 = alloca %"class.std::allocator.6", align 1
  %5 = alloca %"class.std::allocator.6", align 1
  %6 = alloca %"class.std::allocator.6", align 1
  %7 = alloca %"class.std::allocator.6", align 1
  %8 = alloca %"class.std::allocator.6", align 1
  %9 = alloca %"class.std::__cxx11::basic_ostringstream", align 8
  %10 = alloca %"class.std::__cxx11::basic_string", align 8
  %11 = getelementptr inbounds i8, ptr %1, i64 8
  %12 = load i16, ptr %11, align 8
  %trunc = trunc i16 %12 to i8
  switch i8 %trunc, label %58 [
    i8 0, label %13
    i8 4, label %17
    i8 5, label %36
    i8 1, label %43
    i8 2, label %45
    i8 3, label %56
  ]

13:                                               ; preds = %2
  call void @_ZNSaIcEC1Ev(ptr noundef nonnull align 1 dereferenceable(1) %5) #39
  invoke void @_ZNSt7__cxx1112basic_stringIcSt11char_traitsIcESaIcEEC1EPKcRKS3_(ptr noundef nonnull align 8 dereferenceable(32) %0, ptr noundef nonnull @.str, ptr noundef nonnull align 1 dereferenceable(1) %5)
          to label %14 unwind label %15

14:                                               ; preds = %13
  call void @_ZNSaIcED1Ev(ptr noundef nonnull align 1 dereferenceable(1) %5) #39
  br label %68

15:                                               ; preds = %13
  %16 = landingpad { ptr, i32 }
          cleanup
  call void @_ZNSaIcED1Ev(ptr noundef nonnull align 1 dereferenceable(1) %5) #39
  br label %common.resume

17:                                               ; preds = %2
  %18 = load ptr, ptr %1, align 8
  %19 = icmp eq ptr %18, null
  br i1 %19, label %20, label %24

20:                                               ; preds = %17
  call void @_ZNSaIcEC1Ev(ptr noundef nonnull align 1 dereferenceable(1) %6) #39
  invoke void @_ZNSt7__cxx1112basic_stringIcSt11char_traitsIcESaIcEEC1EPKcRKS3_(ptr noundef nonnull align 8 dereferenceable(32) %0, ptr noundef nonnull @.str, ptr noundef nonnull align 1 dereferenceable(1) %6)
          to label %21 unwind label %22

21:                                               ; preds = %20
  call void @_ZNSaIcED1Ev(ptr noundef nonnull align 1 dereferenceable(1) %6) #39
  br label %68

22:                                               ; preds = %20
  %23 = landingpad { ptr, i32 }
          cleanup
  call void @_ZNSaIcED1Ev(ptr noundef nonnull align 1 dereferenceable(1) %6) #39
  br label %common.resume

24:                                               ; preds = %17
  %25 = and i16 %12, 256
  %.not = icmp eq i16 %25, 0
  br i1 %.not, label %26, label %29

26:                                               ; preds = %24
  %27 = tail call i64 @strlen(ptr noundef nonnull dereferenceable(1) %18) #44
  %28 = trunc i64 %27 to i32
  br label %_ZN4JsonL20decodePrefixedStringEbPKcPjPS1_.exit

29:                                               ; preds = %24
  %30 = load i32, ptr %18, align 4
  %31 = getelementptr inbounds i8, ptr %18, i64 4
  br label %_ZN4JsonL20decodePrefixedStringEbPKcPjPS1_.exit

_ZN4JsonL20decodePrefixedStringEbPKcPjPS1_.exit:  ; preds = %26, %29
  %.sink.i = phi i32 [ %30, %29 ], [ %28, %26 ]
  %storemerge.i = phi ptr [ %31, %29 ], [ %18, %26 ]
  %32 = zext i32 %.sink.i to i64
  call void @_ZNSaIcEC1Ev(ptr noundef nonnull align 1 dereferenceable(1) %7) #39
  invoke void @_ZNSt7__cxx1112basic_stringIcSt11char_traitsIcESaIcEEC1EPKcmRKS3_(ptr noundef nonnull align 8 dereferenceable(32) %0, ptr noundef nonnull %storemerge.i, i64 noundef %32, ptr noundef nonnull align 1 dereferenceable(1) %7)
          to label %33 unwind label %34

33:                                               ; preds = %_ZN4JsonL20decodePrefixedStringEbPKcPjPS1_.exit
  call void @_ZNSaIcED1Ev(ptr noundef nonnull align 1 dereferenceable(1) %7) #39
  br label %68

34:                                               ; preds = %_ZN4JsonL20decodePrefixedStringEbPKcPjPS1_.exit
  %35 = landingpad { ptr, i32 }
          cleanup
  call void @_ZNSaIcED1Ev(ptr noundef nonnull align 1 dereferenceable(1) %7) #39
  br label %common.resume

36:                                               ; preds = %2
  %37 = load i8, ptr %1, align 8
  %38 = trunc i8 %37 to i1
  %39 = select i1 %38, ptr @.str.45, ptr @.str.46
  call void @_ZNSaIcEC1Ev(ptr noundef nonnull align 1 dereferenceable(1) %8) #39
  invoke void @_ZNSt7__cxx1112basic_stringIcSt11char_traitsIcESaIcEEC1EPKcRKS3_(ptr noundef nonnull align 8 dereferenceable(32) %0, ptr noundef nonnull %39, ptr noundef nonnull align 1 dereferenceable(1) %8)
          to label %40 unwind label %41

40:                                               ; preds = %36
  call void @_ZNSaIcED1Ev(ptr noundef nonnull align 1 dereferenceable(1) %8) #39
  br label %68

41:                                               ; preds = %36
  %42 = landingpad { ptr, i32 }
          cleanup
  call void @_ZNSaIcED1Ev(ptr noundef nonnull align 1 dereferenceable(1) %8) #39
  br label %common.resume

43:                                               ; preds = %2
  %44 = load i64, ptr %1, align 8
  tail call void @_ZN4Json13valueToStringB5cxx11Ex(ptr dead_on_unwind writable sret(%"class.std::__cxx11::basic_string") align 8 %0, i64 noundef %44)
  br label %68

45:                                               ; preds = %2
  %46 = load i64, ptr %1, align 8
  call void @llvm.lifetime.start.p0(i64 25, ptr nonnull %3)
  call void @llvm.lifetime.start.p0(i64 1, ptr nonnull %4)
  %47 = getelementptr inbounds i8, ptr %3, i64 24
  store i8 0, ptr %47, align 8, !noalias !167
  br label %48

48:                                               ; preds = %48, %45
  %.0.i = phi ptr [ %47, %45 ], [ %52, %48 ]
  %.0.i.i = phi i64 [ %46, %45 ], [ %53, %48 ]
  %49 = urem i64 %.0.i.i, 10
  %50 = trunc nuw nsw i64 %49 to i8
  %51 = or disjoint i8 %50, 48
  %52 = getelementptr inbounds i8, ptr %.0.i, i64 -1
  store i8 %51, ptr %52, align 1, !noalias !167
  %53 = udiv i64 %.0.i.i, 10
  %.not.i.i = icmp ult i64 %.0.i.i, 10
  br i1 %.not.i.i, label %_ZN4JsonL12uintToStringEyRPc.exit.i, label %48, !llvm.loop !170

_ZN4JsonL12uintToStringEyRPc.exit.i:              ; preds = %48
  call void @_ZNSaIcEC1Ev(ptr noundef nonnull align 1 dereferenceable(1) %4) #39, !noalias !167
  invoke void @_ZNSt7__cxx1112basic_stringIcSt11char_traitsIcESaIcEEC1EPKcRKS3_(ptr noundef nonnull align 8 dereferenceable(32) %0, ptr noundef nonnull %52, ptr noundef nonnull align 1 dereferenceable(1) %4)
          to label %_ZN4Json13valueToStringB5cxx11Ey.exit unwind label %54

common.resume:                                    ; preds = %15, %22, %34, %41, %67, %54
  %common.resume.op = phi { ptr, i32 } [ %55, %54 ], [ %.pn, %67 ], [ %42, %41 ], [ %23, %22 ], [ %35, %34 ], [ %16, %15 ]
  resume { ptr, i32 } %common.resume.op

54:                                               ; preds = %_ZN4JsonL12uintToStringEyRPc.exit.i
  %55 = landingpad { ptr, i32 }
          cleanup
  call void @_ZNSaIcED1Ev(ptr noundef nonnull align 1 dereferenceable(1) %4) #39
  br label %common.resume

_ZN4Json13valueToStringB5cxx11Ey.exit:            ; preds = %_ZN4JsonL12uintToStringEyRPc.exit.i
  call void @_ZNSaIcED1Ev(ptr noundef nonnull align 1 dereferenceable(1) %4) #39
  call void @llvm.lifetime.end.p0(i64 25, ptr nonnull %3)
  call void @llvm.lifetime.end.p0(i64 1, ptr nonnull %4)
  br label %68

56:                                               ; preds = %2
  %57 = load double, ptr %1, align 8
  tail call void @_ZN4Json13valueToStringB5cxx11Edbj(ptr dead_on_unwind writable sret(%"class.std::__cxx11::basic_string") align 8 %0, double noundef %57, i1 noundef zeroext false, i32 noundef 17)
  br label %68

58:                                               ; preds = %2
  call void @_ZNSt7__cxx1119basic_ostringstreamIcSt11char_traitsIcESaIcEEC1Ev(ptr noundef nonnull align 8 dereferenceable(112) %9)
  %59 = invoke noundef nonnull align 8 dereferenceable(8) ptr @_ZStlsISt11char_traitsIcEERSt13basic_ostreamIcT_ES5_PKc(ptr noundef nonnull align 8 dereferenceable(8) %9, ptr noundef nonnull @.str.47)
          to label %60 unwind label %63

60:                                               ; preds = %58
  invoke void @_ZNKSt7__cxx1119basic_ostringstreamIcSt11char_traitsIcESaIcEE3strEv(ptr dead_on_unwind nonnull writable sret(%"class.std::__cxx11::basic_string") align 8 %10, ptr noundef nonnull align 8 dereferenceable(112) %9)
          to label %61 unwind label %63

61:                                               ; preds = %60
  invoke void @_ZN4Json15throwLogicErrorERKNSt7__cxx1112basic_stringIcSt11char_traitsIcESaIcEEE(ptr noundef nonnull align 8 dereferenceable(32) %10) #43
          to label %62 unwind label %65

62:                                               ; preds = %61
  unreachable

63:                                               ; preds = %60, %58
  %64 = landingpad { ptr, i32 }
          cleanup
  br label %67

65:                                               ; preds = %61
  %66 = landingpad { ptr, i32 }
          cleanup
  call void @_ZNSt7__cxx1112basic_stringIcSt11char_traitsIcESaIcEED1Ev(ptr noundef nonnull align 8 dereferenceable(32) %10) #39
  br label %67

67:                                               ; preds = %65, %63
  %.pn = phi { ptr, i32 } [ %66, %65 ], [ %64, %63 ]
  call void @_ZNSt7__cxx1119basic_ostringstreamIcSt11char_traitsIcESaIcEED1Ev(ptr noundef nonnull align 8 dereferenceable(112) %9) #39
  br label %common.resume

68:                                               ; preds = %56, %_ZN4Json13valueToStringB5cxx11Ey.exit, %43, %40, %33, %21, %14
  ret void
}